target datalayout = "e-m:e-p270:32:32-p271:32:32-p272:64:64-i64:64-i128:128-f80:128-n8:16:32:64-S128"
target triple = "x86_64-pc-linux-gnu"

%struct.bloom_filter_settings = type { i32, i32, i32, i32 }
%struct.commit_graph = type { ptr, i64, i8, i8, i32, %struct.object_id, ptr, ptr, i32, i32, ptr, ptr, ptr, ptr, ptr, ptr, i64, ptr, i64, ptr, i64, ptr, ptr, i64, ptr, ptr }
%struct.object_id = type { [32 x i8], i32 }

@.str.31 = private unnamed_addr constant [1 x i8] zeroinitializer, align 1
@git_gettext_enabled = external global i32, align 4
@.str.38 = private unnamed_addr constant [71 x i8] c"ignoring too-small changed-path chunk (%lu < %lu) in commit-graph file\00", align 1

; Function Attrs: inlinehint nounwind uwtable
define internal i32 @get_be32(ptr noundef %0) #5 {
  %2 = alloca ptr, align 8
  %3 = alloca ptr, align 8
  store ptr %0, ptr %2, align 8, !tbaa !78
  call void @llvm.lifetime.start.p0(i64 8, ptr %3) #12
  %4 = load ptr, ptr %2, align 8, !tbaa !78
  store ptr %4, ptr %3, align 8, !tbaa !65
  %5 = load ptr, ptr %3, align 8, !tbaa !65
  %6 = getelementptr inbounds i8, ptr %5, i64 0
  %7 = load i8, ptr %6, align 1, !tbaa !85
  %8 = zext i8 %7 to i32
  %9 = shl i32 %8, 24
  %10 = load ptr, ptr %3, align 8, !tbaa !65
  %11 = getelementptr inbounds i8, ptr %10, i64 1
  %12 = load i8, ptr %11, align 1, !tbaa !85
  %13 = zext i8 %12 to i32
  %14 = shl i32 %13, 16
  %15 = or i32 %9, %14
  %16 = load ptr, ptr %3, align 8, !tbaa !65
  %17 = getelementptr inbounds i8, ptr %16, i64 2
  %18 = load i8, ptr %17, align 1, !tbaa !85
  %19 = zext i8 %18 to i32
  %20 = shl i32 %19, 8
  %21 = or i32 %15, %20
  %22 = load ptr, ptr %3, align 8, !tbaa !65
  %23 = getelementptr inbounds i8, ptr %22, i64 3
  %24 = load i8, ptr %23, align 1, !tbaa !85
  %25 = zext i8 %24 to i32
  %26 = shl i32 %25, 0
  %27 = or i32 %21, %26
  call void @llvm.lifetime.end.p0(i64 8, ptr %3) #12
  ret i32 %27
}

; Function Attrs: inlinehint nounwind uwtable
define internal ptr @_(ptr noundef %0) #5 {
  %2 = alloca ptr, align 8
  %3 = alloca ptr, align 8
  store ptr %0, ptr %3, align 8, !tbaa !65
  %4 = load ptr, ptr %3, align 8, !tbaa !65
  %5 = load i8, ptr %4, align 1, !tbaa !85
  %6 = icmp ne i8 %5, 0
  br i1 %6, label %8, label %7

7:                                                ; preds = %1
  store ptr @.str.31, ptr %2, align 8
  br label %16

8:                                                ; preds = %1
  %9 = load i32, ptr @git_gettext_enabled, align 4, !tbaa !4
  %10 = icmp ne i32 %9, 0
  br i1 %10, label %13, label %11

11:                                               ; preds = %8
  %12 = load ptr, ptr %3, align 8, !tbaa !65
  store ptr %12, ptr %2, align 8
  br label %16

13:                                               ; preds = %8
  %14 = load ptr, ptr %3, align 8, !tbaa !65
  %15 = call ptr @dcgettext(ptr noundef null, ptr noundef %14, i32 noundef 5) #12
  store ptr %15, ptr %2, align 8
  br label %16

16:                                               ; preds = %13, %11, %7
  %17 = load ptr, ptr %2, align 8
  ret ptr %17
}

; Function Attrs: nounwind uwtable
define internal i32 @graph_read_bloom_data(ptr noundef %0, i64 noundef %1, ptr noundef %2) #0 {
  %4 = alloca i32, align 4
  %5 = alloca ptr, align 8
  %6 = alloca i64, align 8
  %7 = alloca ptr, align 8
  %8 = alloca ptr, align 8
  %9 = alloca i32, align 4
  store ptr %0, ptr %5, align 8, !tbaa !65
  store i64 %1, ptr %6, align 8, !tbaa !73
  store ptr %2, ptr %7, align 8, !tbaa !78
  call void @llvm.lifetime.start.p0(i64 8, ptr %8) #12
  %10 = load ptr, ptr %7, align 8, !tbaa !78
  store ptr %10, ptr %8, align 8, !tbaa !79
  %11 = load i64, ptr %6, align 8, !tbaa !73
  %12 = icmp ult i64 %11, 12
  br i1 %12, label %13, label %16

13:                                               ; preds = %3
  %14 = call ptr @_(ptr noundef @.str.38)
  %15 = load i64, ptr %6, align 8, !tbaa !73
  call void (ptr, ...) @warning(ptr noundef %14, i64 noundef %15, i64 noundef 12)
  store i32 -1, ptr %4, align 4
  store i32 1, ptr %9, align 4
  br label %50

16:                                               ; preds = %3
  %17 = load ptr, ptr %5, align 8, !tbaa !65
  %18 = load ptr, ptr %8, align 8, !tbaa !79
  %19 = getelementptr inbounds nuw %struct.commit_graph, ptr %18, i32 0, i32 22
  store ptr %17, ptr %19, align 8, !tbaa !99
  %20 = load i64, ptr %6, align 8, !tbaa !73
  %21 = load ptr, ptr %8, align 8, !tbaa !79
  %22 = getelementptr inbounds nuw %struct.commit_graph, ptr %21, i32 0, i32 23
  store i64 %20, ptr %22, align 8, !tbaa !107
  %23 = call ptr @xmalloc(i64 noundef 16)
  %24 = load ptr, ptr %8, align 8, !tbaa !79
  %25 = getelementptr inbounds nuw %struct.commit_graph, ptr %24, i32 0, i32 25
  store ptr %23, ptr %25, align 8, !tbaa !100
  %26 = load ptr, ptr %5, align 8, !tbaa !65
  %27 = call i32 @get_be32(ptr noundef %26)
  %28 = load ptr, ptr %8, align 8, !tbaa !79
  %29 = getelementptr inbounds nuw %struct.commit_graph, ptr %28, i32 0, i32 25
  %30 = load ptr, ptr %29, align 8, !tbaa !100
  %31 = getelementptr inbounds nuw %struct.bloom_filter_settings, ptr %30, i32 0, i32 0
  store i32 %27, ptr %31, align 4, !tbaa !108
  %32 = load ptr, ptr %5, align 8, !tbaa !65
  %33 = getelementptr inbounds i8, ptr %32, i64 4
  %34 = call i32 @get_be32(ptr noundef %33)
  %35 = load ptr, ptr %8, align 8, !tbaa !79
  %36 = getelementptr inbounds nuw %struct.commit_graph, ptr %35, i32 0, i32 25
  %37 = load ptr, ptr %36, align 8, !tbaa !100
  %38 = getelementptr inbounds nuw %struct.bloom_filter_settings, ptr %37, i32 0, i32 1
  store i32 %34, ptr %38, align 4, !tbaa !110
  %39 = load ptr, ptr %5, align 8, !tbaa !65
  %40 = getelementptr inbounds i8, ptr %39, i64 8
  %41 = call i32 @get_be32(ptr noundef %40)
  %42 = load ptr, ptr %8, align 8, !tbaa !79
  %43 = getelementptr inbounds nuw %struct.commit_graph, ptr %42, i32 0, i32 25
  %44 = load ptr, ptr %43, align 8, !tbaa !100
  %45 = getelementptr inbounds nuw %struct.bloom_filter_settings, ptr %44, i32 0, i32 2
  store i32 %41, ptr %45, align 4, !tbaa !111
  %46 = load ptr, ptr %8, align 8, !tbaa !79
  %47 = getelementptr inbounds nuw %struct.commit_graph, ptr %46, i32 0, i32 25
  %48 = load ptr, ptr %47, align 8, !tbaa !100
  %49 = getelementptr inbounds nuw %struct.bloom_filter_settings, ptr %48, i32 0, i32 3
  store i32 512, ptr %49, align 4, !tbaa !112
  store i32 0, ptr %4, align 4
  store i32 1, ptr %9, align 4
  br label %50

50:                                               ; preds = %16, %13
  call void @llvm.lifetime.end.p0(i64 8, ptr %8) #12
  %51 = load i32, ptr %4, align 4
  ret i32 %51
}