; Function Attrs: nounwind uwtable
define internal range(i32 -1, 1) i32 @graph_read_bloom_data(ptr noundef %0, i64 noundef %1, ptr noundef writeonly captures(none) %2) #0 {
  %4 = icmp ult i64 %1, 12
  br i1 %4, label %5, label %9

5:                                                ; preds = %3
  %6 = load i32, ptr @git_gettext_enabled, align 4, !tbaa !47
  %.not4.i = icmp eq i32 %6, 0
  br i1 %.not4.i, label %_.exit, label %7

7:                                                ; preds = %5
  %8 = tail call ptr @dcgettext(ptr noundef null, ptr noundef nonnull @.str.38, i32 noundef 5) #24
  br label %_.exit

_.exit:                                           ; preds = %5, %7
  %.0.i = phi ptr [ %8, %7 ], [ @.str.38, %5 ]
  tail call void (ptr, ...) @warning(ptr noundef %.0.i, i64 noundef %1, i64 noundef 12) #24
  br label %70

9:                                                ; preds = %3
  %10 = getelementptr inbounds nuw i8, ptr %2, i64 184
  store ptr %0, ptr %10, align 8, !tbaa !90
  %11 = getelementptr inbounds nuw i8, ptr %2, i64 192
  store i64 %1, ptr %11, align 8, !tbaa !101
  %12 = tail call ptr @xmalloc(i64 noundef 16) #24
  %13 = getelementptr inbounds nuw i8, ptr %2, i64 208
  store ptr %12, ptr %13, align 8, !tbaa !91
  %14 = load i8, ptr %0, align 1, !tbaa !80
  %15 = zext i8 %14 to i32
  %16 = shl nuw i32 %15, 24
  %17 = getelementptr inbounds nuw i8, ptr %0, i64 1
  %18 = load i8, ptr %17, align 1, !tbaa !80
  %19 = zext i8 %18 to i32
  %20 = shl nuw nsw i32 %19, 16
  %21 = or disjoint i32 %20, %16
  %22 = getelementptr inbounds nuw i8, ptr %0, i64 2
  %23 = load i8, ptr %22, align 1, !tbaa !80
  %24 = zext i8 %23 to i32
  %25 = shl nuw nsw i32 %24, 8
  %26 = or disjoint i32 %21, %25
  %27 = getelementptr inbounds nuw i8, ptr %0, i64 3
  %28 = load i8, ptr %27, align 1, !tbaa !80
  %29 = zext i8 %28 to i32
  %30 = or disjoint i32 %26, %29
  store i32 %30, ptr %12, align 4, !tbaa !102
  %31 = getelementptr inbounds nuw i8, ptr %0, i64 4
  %32 = load i8, ptr %31, align 1, !tbaa !80
  %33 = zext i8 %32 to i32
  %34 = shl nuw i32 %33, 24
  %35 = getelementptr inbounds nuw i8, ptr %0, i64 5
  %36 = load i8, ptr %35, align 1, !tbaa !80
  %37 = zext i8 %36 to i32
  %38 = shl nuw nsw i32 %37, 16
  %39 = or disjoint i32 %38, %34
  %40 = getelementptr inbounds nuw i8, ptr %0, i64 6
  %41 = load i8, ptr %40, align 1, !tbaa !80
  %42 = zext i8 %41 to i32
  %43 = shl nuw nsw i32 %42, 8
  %44 = or disjoint i32 %39, %43
  %45 = getelementptr inbounds nuw i8, ptr %0, i64 7
  %46 = load i8, ptr %45, align 1, !tbaa !80
  %47 = zext i8 %46 to i32
  %48 = or disjoint i32 %44, %47
  %49 = getelementptr inbounds nuw i8, ptr %12, i64 4
  store i32 %48, ptr %49, align 4, !tbaa !104
  %50 = getelementptr inbounds nuw i8, ptr %0, i64 8
  %51 = load i8, ptr %50, align 1, !tbaa !80
  %52 = zext i8 %51 to i32
  %53 = shl nuw i32 %52, 24
  %54 = getelementptr inbounds nuw i8, ptr %0, i64 9
  %55 = load i8, ptr %54, align 1, !tbaa !80
  %56 = zext i8 %55 to i32
  %57 = shl nuw nsw i32 %56, 16
  %58 = or disjoint i32 %57, %53
  %59 = getelementptr inbounds nuw i8, ptr %0, i64 10
  %60 = load i8, ptr %59, align 1, !tbaa !80
  %61 = zext i8 %60 to i32
  %62 = shl nuw nsw i32 %61, 8
  %63 = or disjoint i32 %58, %62
  %64 = getelementptr inbounds nuw i8, ptr %0, i64 11
  %65 = load i8, ptr %64, align 1, !tbaa !80
  %66 = zext i8 %65 to i32
  %67 = or disjoint i32 %63, %66
  %68 = getelementptr inbounds nuw i8, ptr %12, i64 8
  store i32 %67, ptr %68, align 4, !tbaa !105
  %69 = getelementptr inbounds nuw i8, ptr %12, i64 12
  store i32 512, ptr %69, align 4, !tbaa !106
  br label %70

70:                                               ; preds = %9, %_.exit
  %.0 = phi i32 [ -1, %_.exit ], [ 0, %9 ]
  ret i32 %.0
}